target datalayout = "e-m:e-p270:32:32-p271:32:32-p272:64:64-i64:64-i128:128-f80:128-n8:16:32:64-S128"
target triple = "x86_64-pc-linux-gnu"

%struct.lv_style_t = type { ptr, i32, i8 }
%struct.lv_area_t = type { i32, i32, i32, i32 }
%struct._lv_span_t = type { ptr, ptr, %struct.lv_style_t, i8, %struct.lv_point_t, i32 }
%struct.lv_point_t = type { i32, i32 }
%struct._lv_span_coords_t = type { %struct.lv_area_t, %struct.lv_area_t, %struct.lv_area_t }

; Function Attrs: nounwind uwtable
define internal void @make_span_coords(ptr dead_on_unwind noalias writable sret(%struct._lv_span_coords_t) align 4 %0, ptr noundef %1, ptr noundef %2, i32 noundef %3, i64 %4, i64 %5, i32 noundef %6) #0 {
  %8 = alloca %struct.lv_area_t, align 4
  %9 = alloca ptr, align 8
  %10 = alloca ptr, align 8
  %11 = alloca i32, align 4
  %12 = alloca i32, align 4
  %13 = alloca i8, align 1
  %14 = alloca i32, align 4
  %15 = alloca %struct.lv_point_t, align 4
  %16 = alloca i32, align 4
  %17 = getelementptr inbounds nuw { i64, i64 }, ptr %8, i32 0, i32 0
  store i64 %4, ptr %17, align 4
  %18 = getelementptr inbounds nuw { i64, i64 }, ptr %8, i32 0, i32 1
  store i64 %5, ptr %18, align 4
  store ptr %1, ptr %9, align 8, !tbaa !3
  store ptr %2, ptr %10, align 8, !tbaa !3
  store i32 %3, ptr %11, align 4, !tbaa !23
  store i32 %6, ptr %12, align 4, !tbaa !23
  call void @llvm.memset.p0.i64(ptr align 4 %0, i8 0, i64 48, i1 false)
  %19 = load ptr, ptr %10, align 8, !tbaa !3
  %20 = icmp eq ptr %19, null
  br i1 %20, label %21, label %22

21:                                               ; preds = %7
  br label %186

22:                                               ; preds = %7
  %23 = load ptr, ptr %9, align 8, !tbaa !3
  %24 = icmp eq ptr %23, null
  br i1 %24, label %25, label %66

25:                                               ; preds = %22
  %26 = getelementptr inbounds nuw %struct._lv_span_coords_t, ptr %0, i32 0, i32 0
  %27 = getelementptr inbounds nuw %struct.lv_area_t, ptr %8, i32 0, i32 0
  %28 = load i32, ptr %27, align 4, !tbaa !63
  %29 = load i32, ptr %12, align 4, !tbaa !23
  %30 = add nsw i32 %28, %29
  %31 = getelementptr inbounds nuw %struct.lv_area_t, ptr %8, i32 0, i32 1
  %32 = load i32, ptr %31, align 4, !tbaa !64
  %33 = load i32, ptr %11, align 4, !tbaa !23
  %34 = getelementptr inbounds nuw %struct.lv_area_t, ptr %8, i32 0, i32 0
  %35 = load i32, ptr %34, align 4, !tbaa !63
  %36 = add nsw i32 %33, %35
  %37 = load ptr, ptr %10, align 8, !tbaa !3
  %38 = getelementptr inbounds nuw %struct._lv_span_t, ptr %37, i32 0, i32 4
  %39 = getelementptr inbounds nuw %struct.lv_point_t, ptr %38, i32 0, i32 1
  %40 = load i32, ptr %39, align 4, !tbaa !67
  %41 = getelementptr inbounds nuw %struct.lv_area_t, ptr %8, i32 0, i32 1
  %42 = load i32, ptr %41, align 4, !tbaa !64
  %43 = add nsw i32 %40, %42
  call void @lv_area_set(ptr noundef %26, i32 noundef %30, i32 noundef %32, i32 noundef %36, i32 noundef %43)
  %44 = getelementptr inbounds nuw %struct._lv_span_coords_t, ptr %0, i32 0, i32 1
  %45 = getelementptr inbounds nuw %struct._lv_span_coords_t, ptr %0, i32 0, i32 0
  %46 = getelementptr inbounds nuw %struct.lv_area_t, ptr %45, i32 0, i32 0
  %47 = load i32, ptr %46, align 4, !tbaa !68
  %48 = getelementptr inbounds nuw %struct._lv_span_coords_t, ptr %0, i32 0, i32 0
  %49 = getelementptr inbounds nuw %struct.lv_area_t, ptr %48, i32 0, i32 3
  %50 = load i32, ptr %49, align 4, !tbaa !70
  %51 = load ptr, ptr %10, align 8, !tbaa !3
  %52 = getelementptr inbounds nuw %struct._lv_span_t, ptr %51, i32 0, i32 4
  %53 = getelementptr inbounds nuw %struct.lv_point_t, ptr %52, i32 0, i32 0
  %54 = load i32, ptr %53, align 4, !tbaa !71
  %55 = getelementptr inbounds nuw %struct.lv_area_t, ptr %8, i32 0, i32 0
  %56 = load i32, ptr %55, align 4, !tbaa !63
  %57 = add nsw i32 %54, %56
  %58 = getelementptr inbounds nuw %struct._lv_span_coords_t, ptr %0, i32 0, i32 0
  %59 = getelementptr inbounds nuw %struct.lv_area_t, ptr %58, i32 0, i32 3
  %60 = load i32, ptr %59, align 4, !tbaa !70
  %61 = load ptr, ptr %10, align 8, !tbaa !3
  %62 = getelementptr inbounds nuw %struct._lv_span_t, ptr %61, i32 0, i32 5
  %63 = load i32, ptr %62, align 4, !tbaa !55
  %64 = add nsw i32 %60, %63
  call void @lv_area_set(ptr noundef %44, i32 noundef %47, i32 noundef %50, i32 noundef %57, i32 noundef %64)
  %65 = getelementptr inbounds nuw %struct._lv_span_coords_t, ptr %0, i32 0, i32 2
  call void @lv_area_set(ptr noundef %65, i32 noundef 0, i32 noundef 0, i32 noundef 0, i32 noundef 0)
  br label %186

66:                                               ; preds = %22
  call void @llvm.lifetime.start.p0(i64 1, ptr %13) #6
  %67 = load ptr, ptr %9, align 8, !tbaa !3
  %68 = getelementptr inbounds nuw %struct._lv_span_t, ptr %67, i32 0, i32 4
  %69 = getelementptr inbounds nuw %struct.lv_point_t, ptr %68, i32 0, i32 1
  %70 = load i32, ptr %69, align 4, !tbaa !67
  %71 = load ptr, ptr %10, align 8, !tbaa !3
  %72 = getelementptr inbounds nuw %struct._lv_span_t, ptr %71, i32 0, i32 4
  %73 = getelementptr inbounds nuw %struct.lv_point_t, ptr %72, i32 0, i32 1
  %74 = load i32, ptr %73, align 4, !tbaa !67
  %75 = icmp eq i32 %70, %74
  %76 = zext i1 %75 to i8
  store i8 %76, ptr %13, align 1, !tbaa !39
  %77 = load i8, ptr %13, align 1, !tbaa !39, !range !41, !noundef !42
  %78 = trunc i8 %77 to i1
  %79 = zext i1 %78 to i32
  %80 = icmp eq i32 %79, 1
  br i1 %80, label %81, label %115

81:                                               ; preds = %66
  %82 = getelementptr inbounds nuw %struct._lv_span_coords_t, ptr %0, i32 0, i32 0
  %83 = load ptr, ptr %9, align 8, !tbaa !3
  %84 = getelementptr inbounds nuw %struct._lv_span_t, ptr %83, i32 0, i32 4
  %85 = getelementptr inbounds nuw %struct.lv_point_t, ptr %84, i32 0, i32 0
  %86 = load i32, ptr %85, align 4, !tbaa !71
  %87 = getelementptr inbounds nuw %struct.lv_area_t, ptr %8, i32 0, i32 0
  %88 = load i32, ptr %87, align 4, !tbaa !63
  %89 = add nsw i32 %86, %88
  %90 = load ptr, ptr %9, align 8, !tbaa !3
  %91 = getelementptr inbounds nuw %struct._lv_span_t, ptr %90, i32 0, i32 4
  %92 = getelementptr inbounds nuw %struct.lv_point_t, ptr %91, i32 0, i32 1
  %93 = load i32, ptr %92, align 4, !tbaa !67
  %94 = getelementptr inbounds nuw %struct.lv_area_t, ptr %8, i32 0, i32 1
  %95 = load i32, ptr %94, align 4, !tbaa !64
  %96 = add nsw i32 %93, %95
  %97 = load ptr, ptr %10, align 8, !tbaa !3
  %98 = getelementptr inbounds nuw %struct._lv_span_t, ptr %97, i32 0, i32 4
  %99 = getelementptr inbounds nuw %struct.lv_point_t, ptr %98, i32 0, i32 0
  %100 = load i32, ptr %99, align 4, !tbaa !71
  %101 = getelementptr inbounds nuw %struct.lv_area_t, ptr %8, i32 0, i32 0
  %102 = load i32, ptr %101, align 4, !tbaa !63
  %103 = add nsw i32 %100, %102
  %104 = load ptr, ptr %10, align 8, !tbaa !3
  %105 = getelementptr inbounds nuw %struct._lv_span_t, ptr %104, i32 0, i32 4
  %106 = getelementptr inbounds nuw %struct.lv_point_t, ptr %105, i32 0, i32 1
  %107 = load i32, ptr %106, align 4, !tbaa !67
  %108 = load ptr, ptr %10, align 8, !tbaa !3
  %109 = getelementptr inbounds nuw %struct._lv_span_t, ptr %108, i32 0, i32 5
  %110 = load i32, ptr %109, align 4, !tbaa !55
  %111 = add nsw i32 %107, %110
  %112 = getelementptr inbounds nuw %struct.lv_area_t, ptr %8, i32 0, i32 1
  %113 = load i32, ptr %112, align 4, !tbaa !64
  %114 = add nsw i32 %111, %113
  call void @lv_area_set(ptr noundef %82, i32 noundef %89, i32 noundef %96, i32 noundef %103, i32 noundef %114)
  store i32 1, ptr %14, align 4
  br label %185

115:                                              ; preds = %66
  call void @llvm.lifetime.start.p0(i64 8, ptr %15) #6
  %116 = load ptr, ptr %9, align 8, !tbaa !3
  %117 = getelementptr inbounds nuw %struct._lv_span_t, ptr %116, i32 0, i32 4
  call void @llvm.memcpy.p0.p0.i64(ptr align 4 %15, ptr align 4 %117, i64 8, i1 false), !tbaa.struct !46
  call void @llvm.lifetime.start.p0(i64 4, ptr %16) #6
  %118 = load ptr, ptr %9, align 8, !tbaa !3
  %119 = getelementptr inbounds nuw %struct._lv_span_t, ptr %118, i32 0, i32 5
  %120 = load i32, ptr %119, align 4, !tbaa !55
  store i32 %120, ptr %16, align 4, !tbaa !23
  %121 = getelementptr inbounds nuw %struct._lv_span_coords_t, ptr %0, i32 0, i32 0
  %122 = getelementptr inbounds nuw %struct.lv_point_t, ptr %15, i32 0, i32 0
  %123 = load i32, ptr %122, align 4, !tbaa !25
  %124 = getelementptr inbounds nuw %struct.lv_area_t, ptr %8, i32 0, i32 0
  %125 = load i32, ptr %124, align 4, !tbaa !63
  %126 = add nsw i32 %123, %125
  %127 = getelementptr inbounds nuw %struct.lv_point_t, ptr %15, i32 0, i32 1
  %128 = load i32, ptr %127, align 4, !tbaa !24
  %129 = getelementptr inbounds nuw %struct.lv_area_t, ptr %8, i32 0, i32 1
  %130 = load i32, ptr %129, align 4, !tbaa !64
  %131 = add nsw i32 %128, %130
  %132 = load i32, ptr %11, align 4, !tbaa !23
  %133 = getelementptr inbounds nuw %struct.lv_area_t, ptr %8, i32 0, i32 0
  %134 = load i32, ptr %133, align 4, !tbaa !63
  %135 = add nsw i32 %132, %134
  %136 = getelementptr inbounds nuw %struct.lv_point_t, ptr %15, i32 0, i32 1
  %137 = load i32, ptr %136, align 4, !tbaa !24
  %138 = load i32, ptr %16, align 4, !tbaa !23
  %139 = add nsw i32 %137, %138
  %140 = getelementptr inbounds nuw %struct.lv_area_t, ptr %8, i32 0, i32 1
  %141 = load i32, ptr %140, align 4, !tbaa !64
  %142 = add nsw i32 %139, %141
  call void @lv_area_set(ptr noundef %121, i32 noundef %126, i32 noundef %131, i32 noundef %135, i32 noundef %142)
  %143 = getelementptr inbounds nuw %struct._lv_span_coords_t, ptr %0, i32 0, i32 1
  %144 = getelementptr inbounds nuw %struct.lv_area_t, ptr %8, i32 0, i32 0
  %145 = load i32, ptr %144, align 4, !tbaa !63
  %146 = getelementptr inbounds nuw %struct._lv_span_coords_t, ptr %0, i32 0, i32 0
  %147 = getelementptr inbounds nuw %struct.lv_area_t, ptr %146, i32 0, i32 3
  %148 = load i32, ptr %147, align 4, !tbaa !70
  %149 = load i32, ptr %11, align 4, !tbaa !23
  %150 = getelementptr inbounds nuw %struct.lv_area_t, ptr %8, i32 0, i32 0
  %151 = load i32, ptr %150, align 4, !tbaa !63
  %152 = add nsw i32 %149, %151
  %153 = load ptr, ptr %10, align 8, !tbaa !3
  %154 = getelementptr inbounds nuw %struct._lv_span_t, ptr %153, i32 0, i32 4
  %155 = getelementptr inbounds nuw %struct.lv_point_t, ptr %154, i32 0, i32 1
  %156 = load i32, ptr %155, align 4, !tbaa !67
  %157 = getelementptr inbounds nuw %struct.lv_area_t, ptr %8, i32 0, i32 1
  %158 = load i32, ptr %157, align 4, !tbaa !64
  %159 = add nsw i32 %156, %158
  call void @lv_area_set(ptr noundef %143, i32 noundef %145, i32 noundef %148, i32 noundef %152, i32 noundef %159)
  %160 = getelementptr inbounds nuw %struct._lv_span_coords_t, ptr %0, i32 0, i32 2
  %161 = getelementptr inbounds nuw %struct._lv_span_coords_t, ptr %0, i32 0, i32 1
  %162 = getelementptr inbounds nuw %struct.lv_area_t, ptr %161, i32 0, i32 0
  %163 = load i32, ptr %162, align 4, !tbaa !72
  %164 = getelementptr inbounds nuw %struct._lv_span_coords_t, ptr %0, i32 0, i32 1
  %165 = getelementptr inbounds nuw %struct.lv_area_t, ptr %164, i32 0, i32 3
  %166 = load i32, ptr %165, align 4, !tbaa !73
  %167 = load ptr, ptr %10, align 8, !tbaa !3
  %168 = getelementptr inbounds nuw %struct._lv_span_t, ptr %167, i32 0, i32 4
  %169 = getelementptr inbounds nuw %struct.lv_point_t, ptr %168, i32 0, i32 0
  %170 = load i32, ptr %169, align 4, !tbaa !71
  %171 = getelementptr inbounds nuw %struct.lv_area_t, ptr %8, i32 0, i32 0
  %172 = load i32, ptr %171, align 4, !tbaa !63
  %173 = add nsw i32 %170, %172
  %174 = load ptr, ptr %10, align 8, !tbaa !3
  %175 = getelementptr inbounds nuw %struct._lv_span_t, ptr %174, i32 0, i32 4
  %176 = getelementptr inbounds nuw %struct.lv_point_t, ptr %175, i32 0, i32 1
  %177 = load i32, ptr %176, align 4, !tbaa !67
  %178 = load ptr, ptr %10, align 8, !tbaa !3
  %179 = getelementptr inbounds nuw %struct._lv_span_t, ptr %178, i32 0, i32 5
  %180 = load i32, ptr %179, align 4, !tbaa !55
  %181 = add nsw i32 %177, %180
  %182 = getelementptr inbounds nuw %struct.lv_area_t, ptr %8, i32 0, i32 1
  %183 = load i32, ptr %182, align 4, !tbaa !64
  %184 = add nsw i32 %181, %183
  call void @lv_area_set(ptr noundef %160, i32 noundef %163, i32 noundef %166, i32 noundef %173, i32 noundef %184)
  store i32 1, ptr %14, align 4
  call void @llvm.lifetime.end.p0(i64 4, ptr %16) #6
  call void @llvm.lifetime.end.p0(i64 8, ptr %15) #6
  br label %185

185:                                              ; preds = %115, %81
  call void @llvm.lifetime.end.p0(i64 1, ptr %13) #6
  br label %186

186:                                              ; preds = %185, %25, %21
  ret void
}