; Function Attrs: nounwind uwtable
define internal fastcc void @make_span_coords(ptr dead_on_unwind noalias writable align 4 %0, ptr noundef readonly %1, ptr noundef readonly %2, i32 noundef %3, i64 %4, i32 noundef %5) unnamed_addr #0 {
  %.sroa.024.0.extract.trunc = trunc i64 %4 to i32
  %.sroa.11.0.extract.shift = lshr i64 %4, 32
  %.sroa.11.0.extract.trunc = trunc nuw i64 %.sroa.11.0.extract.shift to i32
  tail call void @llvm.memset.p0.i64(ptr noundef nonnull align 4 dereferenceable(48) %0, i8 0, i64 48, i1 false)
  %7 = icmp eq ptr %2, null
  br i1 %7, label %67, label %8

8:                                                ; preds = %6
  %9 = icmp eq ptr %1, null
  br i1 %9, label %10, label %27

10:                                               ; preds = %8
  %11 = add nsw i32 %5, %.sroa.024.0.extract.trunc
  %12 = add nsw i32 %3, %.sroa.024.0.extract.trunc
  %13 = getelementptr inbounds nuw i8, ptr %2, i64 36
  %14 = getelementptr inbounds nuw i8, ptr %2, i64 40
  %15 = load i32, ptr %14, align 4, !tbaa !82
  %16 = add nsw i32 %15, %.sroa.11.0.extract.trunc
  tail call void @lv_area_set(ptr noundef nonnull %0, i32 noundef %11, i32 noundef %.sroa.11.0.extract.trunc, i32 noundef %12, i32 noundef %16) #8
  %17 = getelementptr inbounds nuw i8, ptr %0, i64 16
  %18 = load i32, ptr %0, align 4, !tbaa !83
  %19 = getelementptr inbounds nuw i8, ptr %0, i64 12
  %20 = load i32, ptr %19, align 4, !tbaa !85
  %21 = load i32, ptr %13, align 4, !tbaa !86
  %22 = add nsw i32 %21, %.sroa.024.0.extract.trunc
  %23 = getelementptr inbounds nuw i8, ptr %2, i64 44
  %24 = load i32, ptr %23, align 4, !tbaa !76
  %25 = add nsw i32 %24, %20
  tail call void @lv_area_set(ptr noundef nonnull %17, i32 noundef %18, i32 noundef %20, i32 noundef %22, i32 noundef %25) #8
  %26 = getelementptr inbounds nuw i8, ptr %0, i64 32
  tail call void @lv_area_set(ptr noundef nonnull %26, i32 noundef 0, i32 noundef 0, i32 noundef 0, i32 noundef 0) #8
  br label %67

27:                                               ; preds = %8
  %28 = getelementptr inbounds nuw i8, ptr %1, i64 36
  %29 = getelementptr inbounds nuw i8, ptr %1, i64 40
  %30 = load i32, ptr %29, align 4, !tbaa !23
  %31 = getelementptr inbounds nuw i8, ptr %2, i64 36
  %32 = getelementptr inbounds nuw i8, ptr %2, i64 40
  %33 = load i32, ptr %32, align 4, !tbaa !82
  %34 = icmp eq i32 %30, %33
  %35 = load i32, ptr %28, align 4, !tbaa !23
  br i1 %34, label %36, label %44

36:                                               ; preds = %27
  %37 = add nsw i32 %35, %.sroa.024.0.extract.trunc
  %38 = add i32 %30, %.sroa.11.0.extract.trunc
  %39 = load i32, ptr %31, align 4, !tbaa !86
  %40 = add nsw i32 %39, %.sroa.024.0.extract.trunc
  %41 = getelementptr inbounds nuw i8, ptr %2, i64 44
  %42 = load i32, ptr %41, align 4, !tbaa !76
  %43 = add i32 %38, %42
  tail call void @lv_area_set(ptr noundef nonnull %0, i32 noundef %37, i32 noundef %38, i32 noundef %40, i32 noundef %43) #8
  br label %67

44:                                               ; preds = %27
  %45 = getelementptr inbounds nuw i8, ptr %1, i64 44
  %46 = load i32, ptr %45, align 4, !tbaa !76
  %47 = add nsw i32 %35, %.sroa.024.0.extract.trunc
  %48 = add i32 %30, %.sroa.11.0.extract.trunc
  %49 = add nsw i32 %3, %.sroa.024.0.extract.trunc
  %50 = add i32 %48, %46
  tail call void @lv_area_set(ptr noundef nonnull %0, i32 noundef %47, i32 noundef %48, i32 noundef %49, i32 noundef %50) #8
  %51 = getelementptr inbounds nuw i8, ptr %0, i64 16
  %52 = getelementptr inbounds nuw i8, ptr %0, i64 12
  %53 = load i32, ptr %52, align 4, !tbaa !85
  %54 = load i32, ptr %32, align 4, !tbaa !82
  %55 = add nsw i32 %54, %.sroa.11.0.extract.trunc
  tail call void @lv_area_set(ptr noundef nonnull %51, i32 noundef %.sroa.024.0.extract.trunc, i32 noundef %53, i32 noundef %49, i32 noundef %55) #8
  %56 = getelementptr inbounds nuw i8, ptr %0, i64 32
  %57 = load i32, ptr %51, align 4, !tbaa !87
  %58 = getelementptr inbounds nuw i8, ptr %0, i64 28
  %59 = load i32, ptr %58, align 4, !tbaa !88
  %60 = load i32, ptr %31, align 4, !tbaa !86
  %61 = add nsw i32 %60, %.sroa.024.0.extract.trunc
  %62 = load i32, ptr %32, align 4, !tbaa !82
  %63 = getelementptr inbounds nuw i8, ptr %2, i64 44
  %64 = load i32, ptr %63, align 4, !tbaa !76
  %65 = add i32 %62, %.sroa.11.0.extract.trunc
  %66 = add i32 %65, %64
  tail call void @lv_area_set(ptr noundef nonnull %56, i32 noundef %57, i32 noundef %59, i32 noundef %61, i32 noundef %66) #8
  br label %67

67:                                               ; preds = %36, %44, %6, %10
  ret void
}